ccopy_reg
_reconstructor
p0
(cpgmpy.models.BayesianModel
BayesianModel
p1
c__builtin__
object
p2
Ntp3
Rp4
(dp5
S'node'
p6
(dp7
S'field_of_work'
p8
(dp9
S'weight'
p10
NssS'position_held'
p11
(dp12
g10
NssS'sports_discipline_competed_in'
p13
(dp14
g10
NssS'sex_or_gender'
p15
(dp16
g10
NssS'instrument'
p17
(dp18
g10
NssS'filmography'
p19
(dp20
g10
NssS'discography'
p21
(dp22
g10
NssS'genre'
p23
(dp24
g10
NssS'occupation'
p25
(dp26
g10
NssS'identity'
p27
(dp28
g10
NssS'singles_record'
p29
(dp30
g10
NsssS'node_dict_factory'
p31
c__builtin__
dict
p32
sS'edge_attr_dict_factory'
p33
g32
sS'cardinalities'
p34
ccollections
defaultdict
p35
(c__builtin__
int
p36
tp37
Rp38
sS'succ'
p39
(dp40
g8
(dp41
sg11
(dp42
sg13
(dp43
sg15
(dp44
sg17
(dp45
sg19
(dp46
sg21
(dp47
g8
(dp48
g10
Nssg11
(dp49
g10
Nssg13
(dp50
g10
Nssg15
(dp51
g10
Nssg19
(dp52
g10
Nssg29
(dp53
g10
Nsssg23
(dp54
g8
(dp55
g10
Nssg11
(dp56
g10
Nssg13
(dp57
g10
Nssg15
(dp58
g10
Nssg19
(dp59
g10
Nssg29
(dp60
g10
Nsssg25
(dp61
g8
(dp62
g10
Nssg11
(dp63
g10
Nssg13
(dp64
g10
Nssg15
(dp65
g10
Nssg19
(dp66
g10
Nssg29
(dp67
g10
Nsssg27
(dp68
g8
(dp69
g10
Nssg11
(dp70
g10
Nssg13
(dp71
g10
Nssg15
(dp72
g10
Nssg19
(dp73
g10
Nssg29
(dp74
g10
Nsssg29
(dp75
ssS'edge'
p76
g40
sS'graph'
p77
(dp78
sS'adjlist_dict_factory'
p79
g32
sS'cpds'
p80
(lp81
sS'adj'
p82
g40
sS'pred'
p83
(dp84
g8
(dp85
g23
g55
sg21
g48
sg27
g69
sg25
g62
ssg11
(dp86
g23
g56
sg21
g49
sg27
g70
sg25
g63
ssg13
(dp87
g23
g57
sg21
g50
sg27
g71
sg25
g64
ssg15
(dp88
g23
g58
sg21
g51
sg27
g72
sg25
g65
ssg17
(dp89
sg19
(dp90
g23
g59
sg21
g52
sg27
g73
sg25
g66
ssg21
(dp91
sg23
(dp92
sg25
(dp93
sg27
(dp94
sg29
(dp95
g23
g60
sg21
g53
sg27
g74
sg25
g67
sssb.